ARM GAS  C:\Users\ngocc\AppData\Local\Temp\ccu4t6rc.s 			page 1


   1              		.cpu cortex-m4
   2              		.eabi_attribute 27, 1
   3              		.eabi_attribute 28, 1
   4              		.eabi_attribute 20, 1
   5              		.eabi_attribute 21, 1
   6              		.eabi_attribute 23, 3
   7              		.eabi_attribute 24, 1
   8              		.eabi_attribute 25, 1
   9              		.eabi_attribute 26, 1
  10              		.eabi_attribute 30, 1
  11              		.eabi_attribute 34, 1
  12              		.eabi_attribute 18, 4
  13              		.file	"timer.c"
  14              		.text
  15              	.Ltext0:
  16              		.cfi_sections	.debug_frame
  17              		.section	.text.MX_TIM2_Init,"ax",%progbits
  18              		.align	1
  19              		.global	MX_TIM2_Init
  20              		.arch armv7e-m
  21              		.syntax unified
  22              		.thumb
  23              		.thumb_func
  24              		.fpu fpv4-sp-d16
  26              	MX_TIM2_Init:
  27              	.LFB135:
  28              		.file 1 "user/timer.c"
   1:user/timer.c  **** #include "timer.h"
   2:user/timer.c  **** 
   3:user/timer.c  **** TIM_HandleTypeDef htim2;
   4:user/timer.c  **** /**
   5:user/timer.c  ****   * @brief TIM2 Initialization Function
   6:user/timer.c  ****   * @param None
   7:user/timer.c  ****   * @retval None
   8:user/timer.c  ****   */
   9:user/timer.c  **** void MX_TIM2_Init()
  10:user/timer.c  **** {
  29              		.loc 1 10 1 view -0
  30              		.cfi_startproc
  31              		@ args = 0, pretend = 0, frame = 32
  32              		@ frame_needed = 0, uses_anonymous_args = 0
  33 0000 00B5     		push	{lr}
  34              	.LCFI0:
  35              		.cfi_def_cfa_offset 4
  36              		.cfi_offset 14, -4
  37 0002 89B0     		sub	sp, sp, #36
  38              	.LCFI1:
  39              		.cfi_def_cfa_offset 40
  11:user/timer.c  **** 
  12:user/timer.c  ****   /* USER CODE BEGIN TIM2_Init 0 */
  13:user/timer.c  **** 
  14:user/timer.c  ****   /* USER CODE END TIM2_Init 0 */
  15:user/timer.c  **** 
  16:user/timer.c  ****   TIM_ClockConfigTypeDef sClockSourceConfig = {0};
  40              		.loc 1 16 3 view .LVU1
  41              		.loc 1 16 26 is_stmt 0 view .LVU2
  42 0004 0023     		movs	r3, #0
ARM GAS  C:\Users\ngocc\AppData\Local\Temp\ccu4t6rc.s 			page 2


  43 0006 0493     		str	r3, [sp, #16]
  44 0008 0593     		str	r3, [sp, #20]
  45 000a 0693     		str	r3, [sp, #24]
  46 000c 0793     		str	r3, [sp, #28]
  17:user/timer.c  ****   TIM_MasterConfigTypeDef sMasterConfig = {0};
  47              		.loc 1 17 3 is_stmt 1 view .LVU3
  48              		.loc 1 17 27 is_stmt 0 view .LVU4
  49 000e 0193     		str	r3, [sp, #4]
  50 0010 0293     		str	r3, [sp, #8]
  51 0012 0393     		str	r3, [sp, #12]
  18:user/timer.c  **** 
  19:user/timer.c  ****   /* USER CODE BEGIN TIM2_Init 1 */
  20:user/timer.c  **** 
  21:user/timer.c  ****   /* USER CODE END TIM2_Init 1 */
  22:user/timer.c  ****   htim2.Instance = TIM2;
  52              		.loc 1 22 3 is_stmt 1 view .LVU5
  53              		.loc 1 22 18 is_stmt 0 view .LVU6
  54 0014 1548     		ldr	r0, .L9
  55 0016 4FF08042 		mov	r2, #1073741824
  56 001a 0260     		str	r2, [r0]
  23:user/timer.c  ****   htim2.Init.Prescaler = 7999;
  57              		.loc 1 23 3 is_stmt 1 view .LVU7
  58              		.loc 1 23 24 is_stmt 0 view .LVU8
  59 001c 41F63F72 		movw	r2, #7999
  60 0020 4260     		str	r2, [r0, #4]
  24:user/timer.c  ****   htim2.Init.CounterMode = TIM_COUNTERMODE_UP;
  61              		.loc 1 24 3 is_stmt 1 view .LVU9
  62              		.loc 1 24 26 is_stmt 0 view .LVU10
  63 0022 8360     		str	r3, [r0, #8]
  25:user/timer.c  ****   htim2.Init.Period = 9999;
  64              		.loc 1 25 3 is_stmt 1 view .LVU11
  65              		.loc 1 25 21 is_stmt 0 view .LVU12
  66 0024 42F20F72 		movw	r2, #9999
  67 0028 C260     		str	r2, [r0, #12]
  26:user/timer.c  ****   htim2.Init.ClockDivision = TIM_CLOCKDIVISION_DIV1;
  68              		.loc 1 26 3 is_stmt 1 view .LVU13
  69              		.loc 1 26 28 is_stmt 0 view .LVU14
  70 002a 0361     		str	r3, [r0, #16]
  27:user/timer.c  ****   htim2.Init.AutoReloadPreload = TIM_AUTORELOAD_PRELOAD_DISABLE;
  71              		.loc 1 27 3 is_stmt 1 view .LVU15
  72              		.loc 1 27 32 is_stmt 0 view .LVU16
  73 002c 8361     		str	r3, [r0, #24]
  28:user/timer.c  ****   if (HAL_TIM_Base_Init(&htim2) != HAL_OK)
  74              		.loc 1 28 3 is_stmt 1 view .LVU17
  75              		.loc 1 28 7 is_stmt 0 view .LVU18
  76 002e FFF7FEFF 		bl	HAL_TIM_Base_Init
  77              	.LVL0:
  78              		.loc 1 28 6 view .LVU19
  79 0032 90B9     		cbnz	r0, .L6
  80              	.L2:
  29:user/timer.c  ****   {
  30:user/timer.c  ****     Error_Handler();
  31:user/timer.c  ****   }
  32:user/timer.c  ****   sClockSourceConfig.ClockSource = TIM_CLOCKSOURCE_INTERNAL;
  81              		.loc 1 32 3 is_stmt 1 view .LVU20
  82              		.loc 1 32 34 is_stmt 0 view .LVU21
  83 0034 4FF48053 		mov	r3, #4096
ARM GAS  C:\Users\ngocc\AppData\Local\Temp\ccu4t6rc.s 			page 3


  84 0038 0493     		str	r3, [sp, #16]
  33:user/timer.c  ****   if (HAL_TIM_ConfigClockSource(&htim2, &sClockSourceConfig) != HAL_OK)
  85              		.loc 1 33 3 is_stmt 1 view .LVU22
  86              		.loc 1 33 7 is_stmt 0 view .LVU23
  87 003a 04A9     		add	r1, sp, #16
  88 003c 0B48     		ldr	r0, .L9
  89 003e FFF7FEFF 		bl	HAL_TIM_ConfigClockSource
  90              	.LVL1:
  91              		.loc 1 33 6 view .LVU24
  92 0042 68B9     		cbnz	r0, .L7
  93              	.L3:
  34:user/timer.c  ****   {
  35:user/timer.c  ****     Error_Handler();
  36:user/timer.c  ****   }
  37:user/timer.c  ****   sMasterConfig.MasterOutputTrigger = TIM_TRGO_RESET;
  94              		.loc 1 37 3 is_stmt 1 view .LVU25
  95              		.loc 1 37 37 is_stmt 0 view .LVU26
  96 0044 0023     		movs	r3, #0
  97 0046 0193     		str	r3, [sp, #4]
  38:user/timer.c  ****   sMasterConfig.MasterSlaveMode = TIM_MASTERSLAVEMODE_DISABLE;
  98              		.loc 1 38 3 is_stmt 1 view .LVU27
  99              		.loc 1 38 33 is_stmt 0 view .LVU28
 100 0048 0393     		str	r3, [sp, #12]
  39:user/timer.c  ****   if (HAL_TIMEx_MasterConfigSynchronization(&htim2, &sMasterConfig) != HAL_OK)
 101              		.loc 1 39 3 is_stmt 1 view .LVU29
 102              		.loc 1 39 7 is_stmt 0 view .LVU30
 103 004a 01A9     		add	r1, sp, #4
 104 004c 0748     		ldr	r0, .L9
 105 004e FFF7FEFF 		bl	HAL_TIMEx_MasterConfigSynchronization
 106              	.LVL2:
 107              		.loc 1 39 6 view .LVU31
 108 0052 40B9     		cbnz	r0, .L8
 109              	.L1:
  40:user/timer.c  ****   {
  41:user/timer.c  ****     Error_Handler();
  42:user/timer.c  ****   }
  43:user/timer.c  ****   /* USER CODE BEGIN TIM2_Init 2 */
  44:user/timer.c  **** 
  45:user/timer.c  ****   /* USER CODE END TIM2_Init 2 */
  46:user/timer.c  **** 
  47:user/timer.c  **** }
 110              		.loc 1 47 1 view .LVU32
 111 0054 09B0     		add	sp, sp, #36
 112              	.LCFI2:
 113              		.cfi_remember_state
 114              		.cfi_def_cfa_offset 4
 115              		@ sp needed
 116 0056 5DF804FB 		ldr	pc, [sp], #4
 117              	.L6:
 118              	.LCFI3:
 119              		.cfi_restore_state
  30:user/timer.c  ****   }
 120              		.loc 1 30 5 is_stmt 1 view .LVU33
 121 005a FFF7FEFF 		bl	Error_Handler
 122              	.LVL3:
 123 005e E9E7     		b	.L2
 124              	.L7:
ARM GAS  C:\Users\ngocc\AppData\Local\Temp\ccu4t6rc.s 			page 4


  35:user/timer.c  ****   }
 125              		.loc 1 35 5 view .LVU34
 126 0060 FFF7FEFF 		bl	Error_Handler
 127              	.LVL4:
 128 0064 EEE7     		b	.L3
 129              	.L8:
  41:user/timer.c  ****   }
 130              		.loc 1 41 5 view .LVU35
 131 0066 FFF7FEFF 		bl	Error_Handler
 132              	.LVL5:
 133              		.loc 1 47 1 is_stmt 0 view .LVU36
 134 006a F3E7     		b	.L1
 135              	.L10:
 136              		.align	2
 137              	.L9:
 138 006c 00000000 		.word	.LANCHOR0
 139              		.cfi_endproc
 140              	.LFE135:
 142              		.section	.text.HAL_TIM_PeriodElapsedCallback,"ax",%progbits
 143              		.align	1
 144              		.global	HAL_TIM_PeriodElapsedCallback
 145              		.syntax unified
 146              		.thumb
 147              		.thumb_func
 148              		.fpu fpv4-sp-d16
 150              	HAL_TIM_PeriodElapsedCallback:
 151              	.LVL6:
 152              	.LFB136:
  48:user/timer.c  **** 
  49:user/timer.c  **** 
  50:user/timer.c  **** // call to this function when an interrupt timer occurs  (set interrupt timer = 1s)
  51:user/timer.c  **** void HAL_TIM_PeriodElapsedCallback(TIM_HandleTypeDef *htim){
 153              		.loc 1 51 60 is_stmt 1 view -0
 154              		.cfi_startproc
 155              		@ args = 0, pretend = 0, frame = 0
 156              		@ frame_needed = 0, uses_anonymous_args = 0
 157              		@ link register save eliminated.
  52:user/timer.c  **** 	if(htim->Instance == htim2.Instance){
 158              		.loc 1 52 2 view .LVU38
  53:user/timer.c  **** 		
  54:user/timer.c  **** 	}
 159              		.loc 1 54 2 view .LVU39
  55:user/timer.c  **** }
 160              		.loc 1 55 1 is_stmt 0 view .LVU40
 161 0000 7047     		bx	lr
 162              		.cfi_endproc
 163              	.LFE136:
 165              		.global	htim2
 166              		.section	.bss.htim2,"aw",%nobits
 167              		.align	2
 168              		.set	.LANCHOR0,. + 0
 171              	htim2:
 172 0000 00000000 		.space	76
 172      00000000 
 172      00000000 
 172      00000000 
 172      00000000 
ARM GAS  C:\Users\ngocc\AppData\Local\Temp\ccu4t6rc.s 			page 5


 173              		.text
 174              	.Letext0:
 175              		.file 2 "c:\\program files (x86)\\gnu arm embedded toolchain\\10 2021.07\\arm-none-eabi\\include\\
 176              		.file 3 "c:\\program files (x86)\\gnu arm embedded toolchain\\10 2021.07\\arm-none-eabi\\include\\
 177              		.file 4 "Drivers/CMSIS/Device/ST/STM32L4xx/Include/stm32l452xx.h"
 178              		.file 5 "Drivers/STM32L4xx_HAL_Driver/Inc/stm32l4xx_hal_def.h"
 179              		.file 6 "Drivers/STM32L4xx_HAL_Driver/Inc/stm32l4xx_hal_dma.h"
 180              		.file 7 "Drivers/STM32L4xx_HAL_Driver/Inc/stm32l4xx_hal_tim.h"
 181              		.file 8 "Drivers/STM32L4xx_HAL_Driver/Inc/stm32l4xx_hal_tim_ex.h"
 182              		.file 9 "Core/Inc/main.h"
 183              		.file 10 "user/timer.h"
ARM GAS  C:\Users\ngocc\AppData\Local\Temp\ccu4t6rc.s 			page 6

