ARM GAS  C:\Users\ngocc\AppData\Local\Temp\ccs2i0W2.s 			page 1


   1              		.cpu cortex-m4
   2              		.eabi_attribute 27, 1
   3              		.eabi_attribute 28, 1
   4              		.eabi_attribute 20, 1
   5              		.eabi_attribute 21, 1
   6              		.eabi_attribute 23, 3
   7              		.eabi_attribute 24, 1
   8              		.eabi_attribute 25, 1
   9              		.eabi_attribute 26, 1
  10              		.eabi_attribute 30, 1
  11              		.eabi_attribute 34, 1
  12              		.eabi_attribute 18, 4
  13              		.file	"AT_command.c"
  14              		.text
  15              	.Ltext0:
  16              		.cfi_sections	.debug_frame
  17              		.section	.text.AT_init,"ax",%progbits
  18              		.align	1
  19              		.global	AT_init
  20              		.arch armv7e-m
  21              		.syntax unified
  22              		.thumb
  23              		.thumb_func
  24              		.fpu fpv4-sp-d16
  26              	AT_init:
  27              	.LVL0:
  28              	.LFB3:
  29              		.file 1 "user/AT_command.c"
   1:user/AT_command.c **** #include "AT_command.h"
   2:user/AT_command.c **** 
   3:user/AT_command.c **** AT_TypeDef AT;
   4:user/AT_command.c **** 
   5:user/AT_command.c **** char check_module[] = "AT\r\n";								
   6:user/AT_command.c **** char checking_module[]= "Checking Module Sim\r\n";
   7:user/AT_command.c **** char check_module_[]= "Module Ready\r\n";
   8:user/AT_command.c **** 
   9:user/AT_command.c **** char check_sim[] = "AT+CPIN?\r\n";			
  10:user/AT_command.c **** char checking_sim[]= "KT sim OK\r\n";
  11:user/AT_command.c **** 
  12:user/AT_command.c **** char check_tin_hieu[] = "AT+CSQ\r\n";		
  13:user/AT_command.c **** char checking_tin_hieu[]= "KT cuong do OK\r\n";
  14:user/AT_command.c **** 
  15:user/AT_command.c **** char check_dang_ky[] = "AT+CREG?\r\n";				
  16:user/AT_command.c **** char checking_dang_ky[]= "KT dang ky OK\r\n";
  17:user/AT_command.c **** 
  18:user/AT_command.c **** char check_GPRS[] = "AT+CGATT?\r\n";				
  19:user/AT_command.c **** char checking_GPRS[]= "KT GPRS OK\r\n";
  20:user/AT_command.c **** 
  21:user/AT_command.c **** char set_timeout[] = "AT+CIPTIMEOUT=30000,20000,40000,50000\r\n";   
  22:user/AT_command.c **** char setting_timeout[]= "Set timeout  OK\r\n";
  23:user/AT_command.c **** 
  24:user/AT_command.c **** char set_transmit[] = "AT+CIPMODE=0\r\n";     
  25:user/AT_command.c **** char setting_transmit[]= "Set transmit OK\r\n";
  26:user/AT_command.c **** 
  27:user/AT_command.c **** char check_net[] ="AT+NETOPEN\r\n";           
  28:user/AT_command.c **** char checking_net[]= "KT NET OK\r\n";
  29:user/AT_command.c **** 
ARM GAS  C:\Users\ngocc\AppData\Local\Temp\ccs2i0W2.s 			page 2


  30:user/AT_command.c **** char check_ip[] ="AT+IPADDR\r\n";						
  31:user/AT_command.c **** char checking_ip[]= "KT IP OK\r\n";
  32:user/AT_command.c **** 
  33:user/AT_command.c **** char set_receive[] = "AT+CIPRXGET=0,1\r\n";	
  34:user/AT_command.c **** char setting_receive[]= "KT receive OK\r\n";
  35:user/AT_command.c **** 
  36:user/AT_command.c **** char send_data_to_TCP[] = "AT+CIPSEND=1,,,,";
  37:user/AT_command.c **** 
  38:user/AT_command.c **** char get_time[] = "AT+CCLK?\r\n";
  39:user/AT_command.c **** 
  40:user/AT_command.c **** char connect_tcp[50];
  41:user/AT_command.c **** char connect_tcp_code_first[] ={'A','T','+','C','I','P','O','P','E','N','=','1',',','"','T','C','P'
  42:user/AT_command.c **** char connect_tcp_IP[20];
  43:user/AT_command.c **** char connect_tcp_code_between[] ={'"',',','\0'};
  44:user/AT_command.c **** char connect_tcp_Port[20];
  45:user/AT_command.c **** char connect_tcp_code_final[] ={',','0', 0x0D, 0x0A,'\0'};
  46:user/AT_command.c **** 
  47:user/AT_command.c **** char connect_tcp_ok[] ="CONNECT IP OK\r\n";
  48:user/AT_command.c **** 									
  49:user/AT_command.c **** char check_connect[] = "AT+CIPOPQUERY?\r\n";
  50:user/AT_command.c **** //char check_connect[] = "AT+CIPOPQUERY=1\r\n";
  51:user/AT_command.c **** char check_connect_ok[] = "CONNECT_OK\r\n";
  52:user/AT_command.c **** 
  53:user/AT_command.c **** char close_connect_ip[] = "AT+CIPCLOSE=1";
  54:user/AT_command.c **** char close_net[] = "AT+NETCLOSE";
  55:user/AT_command.c **** 
  56:user/AT_command.c **** void AT_init(char IP_Address[], char Port[]){
  30              		.loc 1 56 45 view -0
  31              		.cfi_startproc
  32              		@ args = 0, pretend = 0, frame = 0
  33              		@ frame_needed = 0, uses_anonymous_args = 0
  34              		.loc 1 56 45 is_stmt 0 view .LVU1
  35 0000 2DE9F041 		push	{r4, r5, r6, r7, r8, lr}
  36              	.LCFI0:
  37              		.cfi_def_cfa_offset 24
  38              		.cfi_offset 4, -24
  39              		.cfi_offset 5, -20
  40              		.cfi_offset 6, -16
  41              		.cfi_offset 7, -12
  42              		.cfi_offset 8, -8
  43              		.cfi_offset 14, -4
  44 0004 0646     		mov	r6, r0
  45 0006 0D46     		mov	r5, r1
  57:user/AT_command.c ****     
  58:user/AT_command.c ****     // to connect TCP server, install in order number
  59:user/AT_command.c ****     memcpy(AT.AT, check_module, strlen(check_module));                       // 1
  46              		.loc 1 59 5 is_stmt 1 view .LVU2
  47 0008 774F     		ldr	r7, .L3
  48 000a 3846     		mov	r0, r7
  49              	.LVL1:
  50              		.loc 1 59 5 is_stmt 0 view .LVU3
  51 000c FFF7FEFF 		bl	strlen
  52              	.LVL2:
  53              		.loc 1 59 5 view .LVU4
  54 0010 0246     		mov	r2, r0
  55 0012 764C     		ldr	r4, .L3+4
  56 0014 3946     		mov	r1, r7
ARM GAS  C:\Users\ngocc\AppData\Local\Temp\ccs2i0W2.s 			page 3


  57 0016 2046     		mov	r0, r4
  58 0018 FFF7FEFF 		bl	memcpy
  59              	.LVL3:
  60:user/AT_command.c ****     memcpy(AT.CPIN, check_sim, strlen(check_sim));                           // 2
  60              		.loc 1 60 5 is_stmt 1 view .LVU5
  61 001c 744F     		ldr	r7, .L3+8
  62 001e 3846     		mov	r0, r7
  63 0020 FFF7FEFF 		bl	strlen
  64              	.LVL4:
  65 0024 0246     		mov	r2, r0
  66 0026 3946     		mov	r1, r7
  67 0028 201D     		adds	r0, r4, #4
  68 002a FFF7FEFF 		bl	memcpy
  69              	.LVL5:
  61:user/AT_command.c ****     memcpy(AT.CSQ, check_tin_hieu, strlen(check_tin_hieu));                  // 3
  70              		.loc 1 61 5 view .LVU6
  71 002e 714F     		ldr	r7, .L3+12
  72 0030 3846     		mov	r0, r7
  73 0032 FFF7FEFF 		bl	strlen
  74              	.LVL6:
  75 0036 0246     		mov	r2, r0
  76 0038 3946     		mov	r1, r7
  77 003a 04F10E00 		add	r0, r4, #14
  78 003e FFF7FEFF 		bl	memcpy
  79              	.LVL7:
  62:user/AT_command.c ****     memcpy(AT.CREG, check_dang_ky, strlen(check_dang_ky));                   // 4
  80              		.loc 1 62 5 view .LVU7
  81 0042 6D4F     		ldr	r7, .L3+16
  82 0044 3846     		mov	r0, r7
  83 0046 FFF7FEFF 		bl	strlen
  84              	.LVL8:
  85 004a 0246     		mov	r2, r0
  86 004c 3946     		mov	r1, r7
  87 004e 04F11600 		add	r0, r4, #22
  88 0052 FFF7FEFF 		bl	memcpy
  89              	.LVL9:
  63:user/AT_command.c ****     memcpy(AT.CGATT, check_GPRS, strlen(check_GPRS));                        // 5
  90              		.loc 1 63 5 view .LVU8
  91 0056 694F     		ldr	r7, .L3+20
  92 0058 3846     		mov	r0, r7
  93 005a FFF7FEFF 		bl	strlen
  94              	.LVL10:
  95 005e 0246     		mov	r2, r0
  96 0060 3946     		mov	r1, r7
  97 0062 04F12000 		add	r0, r4, #32
  98 0066 FFF7FEFF 		bl	memcpy
  99              	.LVL11:
  64:user/AT_command.c ****     memcpy(AT.CIPTIMEOUT, set_timeout, strlen(set_timeout));                 // 6
 100              		.loc 1 64 5 view .LVU9
 101 006a 654F     		ldr	r7, .L3+24
 102 006c 3846     		mov	r0, r7
 103 006e FFF7FEFF 		bl	strlen
 104              	.LVL12:
 105 0072 0246     		mov	r2, r0
 106 0074 3946     		mov	r1, r7
 107 0076 04F12B00 		add	r0, r4, #43
 108 007a FFF7FEFF 		bl	memcpy
ARM GAS  C:\Users\ngocc\AppData\Local\Temp\ccs2i0W2.s 			page 4


 109              	.LVL13:
  65:user/AT_command.c ****     memcpy(AT.CIPMODE, set_transmit, strlen(set_transmit));                  // 7
 110              		.loc 1 65 5 view .LVU10
 111 007e 614F     		ldr	r7, .L3+28
 112 0080 3846     		mov	r0, r7
 113 0082 FFF7FEFF 		bl	strlen
 114              	.LVL14:
 115 0086 0246     		mov	r2, r0
 116 0088 3946     		mov	r1, r7
 117 008a 04F15200 		add	r0, r4, #82
 118 008e FFF7FEFF 		bl	memcpy
 119              	.LVL15:
  66:user/AT_command.c ****     memcpy(AT.NETOPEN, check_net, strlen(check_net));                        // 8
 120              		.loc 1 66 5 view .LVU11
 121 0092 5D4F     		ldr	r7, .L3+32
 122 0094 3846     		mov	r0, r7
 123 0096 FFF7FEFF 		bl	strlen
 124              	.LVL16:
 125 009a 0246     		mov	r2, r0
 126 009c 3946     		mov	r1, r7
 127 009e 04F16000 		add	r0, r4, #96
 128 00a2 FFF7FEFF 		bl	memcpy
 129              	.LVL17:
  67:user/AT_command.c ****     memcpy(AT.IPADDR, check_ip, strlen(check_ip));                           // 9
 130              		.loc 1 67 5 view .LVU12
 131 00a6 594F     		ldr	r7, .L3+36
 132 00a8 3846     		mov	r0, r7
 133 00aa FFF7FEFF 		bl	strlen
 134              	.LVL18:
 135 00ae 0246     		mov	r2, r0
 136 00b0 3946     		mov	r1, r7
 137 00b2 04F16C00 		add	r0, r4, #108
 138 00b6 FFF7FEFF 		bl	memcpy
 139              	.LVL19:
  68:user/AT_command.c ****     memcpy(AT.CIPRXGET, set_receive, strlen(set_receive));                   // 10
 140              		.loc 1 68 5 view .LVU13
 141 00ba 554F     		ldr	r7, .L3+40
 142 00bc 3846     		mov	r0, r7
 143 00be FFF7FEFF 		bl	strlen
 144              	.LVL20:
 145 00c2 0246     		mov	r2, r0
 146 00c4 3946     		mov	r1, r7
 147 00c6 04F17700 		add	r0, r4, #119
 148 00ca FFF7FEFF 		bl	memcpy
 149              	.LVL21:
  69:user/AT_command.c **** 
  70:user/AT_command.c ****     memcpy(AT.CIPSEND_DATA, send_data_to_TCP, strlen(send_data_to_TCP));
 150              		.loc 1 70 5 view .LVU14
 151 00ce 514F     		ldr	r7, .L3+44
 152 00d0 3846     		mov	r0, r7
 153 00d2 FFF7FEFF 		bl	strlen
 154              	.LVL22:
 155 00d6 0246     		mov	r2, r0
 156 00d8 3946     		mov	r1, r7
 157 00da 04F18800 		add	r0, r4, #136
 158 00de FFF7FEFF 		bl	memcpy
 159              	.LVL23:
ARM GAS  C:\Users\ngocc\AppData\Local\Temp\ccs2i0W2.s 			page 5


  71:user/AT_command.c ****     memcpy(AT.CCLK, get_time, strlen(get_time));
 160              		.loc 1 71 5 view .LVU15
 161 00e2 4D4F     		ldr	r7, .L3+48
 162 00e4 3846     		mov	r0, r7
 163 00e6 FFF7FEFF 		bl	strlen
 164              	.LVL24:
 165 00ea 0246     		mov	r2, r0
 166 00ec 3946     		mov	r1, r7
 167 00ee 04F1EC00 		add	r0, r4, #236
 168 00f2 FFF7FEFF 		bl	memcpy
 169              	.LVL25:
  72:user/AT_command.c ****     memcpy(AT.CIPCLOSE, close_connect_ip, strlen(close_connect_ip));
 170              		.loc 1 72 5 view .LVU16
 171 00f6 494F     		ldr	r7, .L3+52
 172 00f8 3846     		mov	r0, r7
 173 00fa FFF7FEFF 		bl	strlen
 174              	.LVL26:
 175 00fe 0246     		mov	r2, r0
 176 0100 3946     		mov	r1, r7
 177 0102 04F59C70 		add	r0, r4, #312
 178 0106 FFF7FEFF 		bl	memcpy
 179              	.LVL27:
  73:user/AT_command.c ****     memcpy(AT.NETCLOSE, close_net, strlen(close_net));
 180              		.loc 1 73 5 view .LVU17
 181 010a 454F     		ldr	r7, .L3+56
 182 010c 3846     		mov	r0, r7
 183 010e FFF7FEFF 		bl	strlen
 184              	.LVL28:
 185 0112 0246     		mov	r2, r0
 186 0114 3946     		mov	r1, r7
 187 0116 04F24510 		addw	r0, r4, #325
 188 011a FFF7FEFF 		bl	memcpy
 189              	.LVL29:
  74:user/AT_command.c **** 
  75:user/AT_command.c ****     // set TCP server with IP and Port
  76:user/AT_command.c ****     memcpy(connect_tcp_IP,IP_Address, strlen(IP_Address));
 190              		.loc 1 76 5 view .LVU18
 191 011e 3046     		mov	r0, r6
 192 0120 FFF7FEFF 		bl	strlen
 193              	.LVL30:
 194 0124 0246     		mov	r2, r0
 195 0126 DFF81081 		ldr	r8, .L3+80
 196 012a 3146     		mov	r1, r6
 197 012c 4046     		mov	r0, r8
 198 012e FFF7FEFF 		bl	memcpy
 199              	.LVL31:
  77:user/AT_command.c ****     memcpy(connect_tcp_Port,Port, strlen(Port));
 200              		.loc 1 77 5 view .LVU19
 201 0132 2846     		mov	r0, r5
 202 0134 FFF7FEFF 		bl	strlen
 203              	.LVL32:
 204 0138 0246     		mov	r2, r0
 205 013a 3A4F     		ldr	r7, .L3+60
 206 013c 2946     		mov	r1, r5
 207 013e 3846     		mov	r0, r7
 208 0140 FFF7FEFF 		bl	memcpy
 209              	.LVL33:
ARM GAS  C:\Users\ngocc\AppData\Local\Temp\ccs2i0W2.s 			page 6


  78:user/AT_command.c ****     memcpy(connect_tcp + 0, connect_tcp_code_first, strlen(connect_tcp_code_first));
 210              		.loc 1 78 5 view .LVU20
 211 0144 384E     		ldr	r6, .L3+64
 212              	.LVL34:
 213              		.loc 1 78 5 is_stmt 0 view .LVU21
 214 0146 3046     		mov	r0, r6
 215 0148 FFF7FEFF 		bl	strlen
 216              	.LVL35:
 217 014c 0246     		mov	r2, r0
 218 014e 374D     		ldr	r5, .L3+68
 219              	.LVL36:
 220              		.loc 1 78 5 view .LVU22
 221 0150 3146     		mov	r1, r6
 222 0152 2846     		mov	r0, r5
 223 0154 FFF7FEFF 		bl	memcpy
 224              	.LVL37:
  79:user/AT_command.c ****     memcpy(connect_tcp + strlen(connect_tcp), connect_tcp_IP, strlen(connect_tcp_IP));
 225              		.loc 1 79 5 is_stmt 1 view .LVU23
 226              		.loc 1 79 26 is_stmt 0 view .LVU24
 227 0158 2846     		mov	r0, r5
 228 015a FFF7FEFF 		bl	strlen
 229              	.LVL38:
 230 015e 0646     		mov	r6, r0
 231              		.loc 1 79 5 view .LVU25
 232 0160 4046     		mov	r0, r8
 233 0162 FFF7FEFF 		bl	strlen
 234              	.LVL39:
 235 0166 0246     		mov	r2, r0
 236 0168 4146     		mov	r1, r8
 237 016a A819     		adds	r0, r5, r6
 238 016c FFF7FEFF 		bl	memcpy
 239              	.LVL40:
  80:user/AT_command.c ****     memcpy(connect_tcp + strlen(connect_tcp), connect_tcp_code_between, strlen(connect_tcp_code_bet
 240              		.loc 1 80 5 is_stmt 1 view .LVU26
 241              		.loc 1 80 26 is_stmt 0 view .LVU27
 242 0170 2846     		mov	r0, r5
 243 0172 FFF7FEFF 		bl	strlen
 244              	.LVL41:
 245 0176 0646     		mov	r6, r0
 246              		.loc 1 80 5 view .LVU28
 247 0178 DFF8C080 		ldr	r8, .L3+84
 248 017c 4046     		mov	r0, r8
 249 017e FFF7FEFF 		bl	strlen
 250              	.LVL42:
 251 0182 0246     		mov	r2, r0
 252 0184 4146     		mov	r1, r8
 253 0186 A819     		adds	r0, r5, r6
 254 0188 FFF7FEFF 		bl	memcpy
 255              	.LVL43:
  81:user/AT_command.c ****     memcpy(connect_tcp + strlen(connect_tcp), connect_tcp_Port, strlen(connect_tcp_Port));
 256              		.loc 1 81 5 is_stmt 1 view .LVU29
 257              		.loc 1 81 26 is_stmt 0 view .LVU30
 258 018c 2846     		mov	r0, r5
 259 018e FFF7FEFF 		bl	strlen
 260              	.LVL44:
 261 0192 0646     		mov	r6, r0
 262              		.loc 1 81 5 view .LVU31
ARM GAS  C:\Users\ngocc\AppData\Local\Temp\ccs2i0W2.s 			page 7


 263 0194 3846     		mov	r0, r7
 264 0196 FFF7FEFF 		bl	strlen
 265              	.LVL45:
 266 019a 0246     		mov	r2, r0
 267 019c 3946     		mov	r1, r7
 268 019e A819     		adds	r0, r5, r6
 269 01a0 FFF7FEFF 		bl	memcpy
 270              	.LVL46:
  82:user/AT_command.c ****     memcpy(connect_tcp + strlen(connect_tcp), connect_tcp_code_final, strlen(connect_tcp_code_final
 271              		.loc 1 82 5 is_stmt 1 view .LVU32
 272              		.loc 1 82 26 is_stmt 0 view .LVU33
 273 01a4 2846     		mov	r0, r5
 274 01a6 FFF7FEFF 		bl	strlen
 275              	.LVL47:
 276 01aa 0646     		mov	r6, r0
 277              		.loc 1 82 5 view .LVU34
 278 01ac 204F     		ldr	r7, .L3+72
 279 01ae 3846     		mov	r0, r7
 280 01b0 FFF7FEFF 		bl	strlen
 281              	.LVL48:
 282 01b4 0246     		mov	r2, r0
 283 01b6 3946     		mov	r1, r7
 284 01b8 A819     		adds	r0, r5, r6
 285 01ba FFF7FEFF 		bl	memcpy
 286              	.LVL49:
  83:user/AT_command.c **** 
  84:user/AT_command.c ****     // connect TCP server with IP and Port
  85:user/AT_command.c ****     memcpy(AT.CIPOPEN, connect_tcp, strlen(connect_tcp));                    // 11
 287              		.loc 1 85 5 is_stmt 1 view .LVU35
 288 01be 2846     		mov	r0, r5
 289 01c0 FFF7FEFF 		bl	strlen
 290              	.LVL50:
 291 01c4 0246     		mov	r2, r0
 292 01c6 2946     		mov	r1, r5
 293 01c8 04F1F600 		add	r0, r4, #246
 294 01cc FFF7FEFF 		bl	memcpy
 295              	.LVL51:
  86:user/AT_command.c ****     memcpy(AT.CIPOPQUERY, check_connect, strlen(check_connect));             // 12
 296              		.loc 1 86 5 view .LVU36
 297 01d0 184D     		ldr	r5, .L3+76
 298 01d2 2846     		mov	r0, r5
 299 01d4 FFF7FEFF 		bl	strlen
 300              	.LVL52:
 301 01d8 0246     		mov	r2, r0
 302 01da 2946     		mov	r1, r5
 303 01dc 04F59470 		add	r0, r4, #296
 304 01e0 FFF7FEFF 		bl	memcpy
 305              	.LVL53:
  87:user/AT_command.c **** 
  88:user/AT_command.c **** }
 306              		.loc 1 88 1 is_stmt 0 view .LVU37
 307 01e4 BDE8F081 		pop	{r4, r5, r6, r7, r8, pc}
 308              	.L4:
 309              		.align	2
 310              	.L3:
 311 01e8 00000000 		.word	.LANCHOR0
 312 01ec 00000000 		.word	.LANCHOR1
ARM GAS  C:\Users\ngocc\AppData\Local\Temp\ccs2i0W2.s 			page 8


 313 01f0 00000000 		.word	.LANCHOR2
 314 01f4 00000000 		.word	.LANCHOR3
 315 01f8 00000000 		.word	.LANCHOR4
 316 01fc 00000000 		.word	.LANCHOR5
 317 0200 00000000 		.word	.LANCHOR6
 318 0204 00000000 		.word	.LANCHOR7
 319 0208 00000000 		.word	.LANCHOR8
 320 020c 00000000 		.word	.LANCHOR9
 321 0210 00000000 		.word	.LANCHOR10
 322 0214 00000000 		.word	.LANCHOR11
 323 0218 00000000 		.word	.LANCHOR12
 324 021c 00000000 		.word	.LANCHOR13
 325 0220 00000000 		.word	.LANCHOR14
 326 0224 00000000 		.word	.LANCHOR16
 327 0228 00000000 		.word	.LANCHOR17
 328 022c 00000000 		.word	.LANCHOR18
 329 0230 00000000 		.word	.LANCHOR20
 330 0234 00000000 		.word	.LANCHOR21
 331 0238 00000000 		.word	.LANCHOR15
 332 023c 00000000 		.word	.LANCHOR19
 333              		.cfi_endproc
 334              	.LFE3:
 336              		.global	close_net
 337              		.global	close_connect_ip
 338              		.global	check_connect_ok
 339              		.global	check_connect
 340              		.global	connect_tcp_ok
 341              		.global	connect_tcp_code_final
 342              		.global	connect_tcp_Port
 343              		.global	connect_tcp_code_between
 344              		.global	connect_tcp_IP
 345              		.global	connect_tcp_code_first
 346              		.global	connect_tcp
 347              		.global	get_time
 348              		.global	send_data_to_TCP
 349              		.global	setting_receive
 350              		.global	set_receive
 351              		.global	checking_ip
 352              		.global	check_ip
 353              		.global	checking_net
 354              		.global	check_net
 355              		.global	setting_transmit
 356              		.global	set_transmit
 357              		.global	setting_timeout
 358              		.global	set_timeout
 359              		.global	checking_GPRS
 360              		.global	check_GPRS
 361              		.global	checking_dang_ky
 362              		.global	check_dang_ky
 363              		.global	checking_tin_hieu
 364              		.global	check_tin_hieu
 365              		.global	checking_sim
 366              		.global	check_sim
 367              		.global	check_module_
 368              		.global	checking_module
 369              		.global	check_module
 370              		.global	AT
ARM GAS  C:\Users\ngocc\AppData\Local\Temp\ccs2i0W2.s 			page 9


 371              		.section	.bss.AT,"aw",%nobits
 372              		.align	2
 373              		.set	.LANCHOR1,. + 0
 376              	AT:
 377 0000 00000000 		.space	336
 377      00000000 
 377      00000000 
 377      00000000 
 377      00000000 
 378              		.section	.bss.connect_tcp,"aw",%nobits
 379              		.align	2
 380              		.set	.LANCHOR18,. + 0
 383              	connect_tcp:
 384 0000 00000000 		.space	50
 384      00000000 
 384      00000000 
 384      00000000 
 384      00000000 
 385              		.section	.bss.connect_tcp_IP,"aw",%nobits
 386              		.align	2
 387              		.set	.LANCHOR15,. + 0
 390              	connect_tcp_IP:
 391 0000 00000000 		.space	20
 391      00000000 
 391      00000000 
 391      00000000 
 391      00000000 
 392              		.section	.bss.connect_tcp_Port,"aw",%nobits
 393              		.align	2
 394              		.set	.LANCHOR16,. + 0
 397              	connect_tcp_Port:
 398 0000 00000000 		.space	20
 398      00000000 
 398      00000000 
 398      00000000 
 398      00000000 
 399              		.section	.data.check_GPRS,"aw"
 400              		.align	2
 401              		.set	.LANCHOR5,. + 0
 404              	check_GPRS:
 405 0000 41542B43 		.ascii	"AT+CGATT?\015\012\000"
 405      47415454 
 405      3F0D0A00 
 406              		.section	.data.check_connect,"aw"
 407              		.align	2
 408              		.set	.LANCHOR21,. + 0
 411              	check_connect:
 412 0000 41542B43 		.ascii	"AT+CIPOPQUERY?\015\012\000"
 412      49504F50 
 412      51554552 
 412      593F0D0A 
 412      00
 413              		.section	.data.check_connect_ok,"aw"
 414              		.align	2
 417              	check_connect_ok:
 418 0000 434F4E4E 		.ascii	"CONNECT_OK\015\012\000"
 418      4543545F 
ARM GAS  C:\Users\ngocc\AppData\Local\Temp\ccs2i0W2.s 			page 10


 418      4F4B0D0A 
 418      00
 419              		.section	.data.check_dang_ky,"aw"
 420              		.align	2
 421              		.set	.LANCHOR4,. + 0
 424              	check_dang_ky:
 425 0000 41542B43 		.ascii	"AT+CREG?\015\012\000"
 425      5245473F 
 425      0D0A00
 426              		.section	.data.check_ip,"aw"
 427              		.align	2
 428              		.set	.LANCHOR9,. + 0
 431              	check_ip:
 432 0000 41542B49 		.ascii	"AT+IPADDR\015\012\000"
 432      50414444 
 432      520D0A00 
 433              		.section	.data.check_module,"aw"
 434              		.align	2
 435              		.set	.LANCHOR0,. + 0
 438              	check_module:
 439 0000 41540D0A 		.ascii	"AT\015\012\000"
 439      00
 440              		.section	.data.check_module_,"aw"
 441              		.align	2
 444              	check_module_:
 445 0000 4D6F6475 		.ascii	"Module Ready\015\012\000"
 445      6C652052 
 445      65616479 
 445      0D0A00
 446              		.section	.data.check_net,"aw"
 447              		.align	2
 448              		.set	.LANCHOR8,. + 0
 451              	check_net:
 452 0000 41542B4E 		.ascii	"AT+NETOPEN\015\012\000"
 452      45544F50 
 452      454E0D0A 
 452      00
 453              		.section	.data.check_sim,"aw"
 454              		.align	2
 455              		.set	.LANCHOR2,. + 0
 458              	check_sim:
 459 0000 41542B43 		.ascii	"AT+CPIN?\015\012\000"
 459      50494E3F 
 459      0D0A00
 460              		.section	.data.check_tin_hieu,"aw"
 461              		.align	2
 462              		.set	.LANCHOR3,. + 0
 465              	check_tin_hieu:
 466 0000 41542B43 		.ascii	"AT+CSQ\015\012\000"
 466      53510D0A 
 466      00
 467              		.section	.data.checking_GPRS,"aw"
 468              		.align	2
 471              	checking_GPRS:
 472 0000 4B542047 		.ascii	"KT GPRS OK\015\012\000"
 472      50525320 
 472      4F4B0D0A 
ARM GAS  C:\Users\ngocc\AppData\Local\Temp\ccs2i0W2.s 			page 11


 472      00
 473              		.section	.data.checking_dang_ky,"aw"
 474              		.align	2
 477              	checking_dang_ky:
 478 0000 4B542064 		.ascii	"KT dang ky OK\015\012\000"
 478      616E6720 
 478      6B79204F 
 478      4B0D0A00 
 479              		.section	.data.checking_ip,"aw"
 480              		.align	2
 483              	checking_ip:
 484 0000 4B542049 		.ascii	"KT IP OK\015\012\000"
 484      50204F4B 
 484      0D0A00
 485              		.section	.data.checking_module,"aw"
 486              		.align	2
 489              	checking_module:
 490 0000 43686563 		.ascii	"Checking Module Sim\015\012\000"
 490      6B696E67 
 490      204D6F64 
 490      756C6520 
 490      53696D0D 
 491              		.section	.data.checking_net,"aw"
 492              		.align	2
 495              	checking_net:
 496 0000 4B54204E 		.ascii	"KT NET OK\015\012\000"
 496      4554204F 
 496      4B0D0A00 
 497              		.section	.data.checking_sim,"aw"
 498              		.align	2
 501              	checking_sim:
 502 0000 4B542073 		.ascii	"KT sim OK\015\012\000"
 502      696D204F 
 502      4B0D0A00 
 503              		.section	.data.checking_tin_hieu,"aw"
 504              		.align	2
 507              	checking_tin_hieu:
 508 0000 4B542063 		.ascii	"KT cuong do OK\015\012\000"
 508      756F6E67 
 508      20646F20 
 508      4F4B0D0A 
 508      00
 509              		.section	.data.close_connect_ip,"aw"
 510              		.align	2
 511              		.set	.LANCHOR13,. + 0
 514              	close_connect_ip:
 515 0000 41542B43 		.ascii	"AT+CIPCLOSE=1\000"
 515      4950434C 
 515      4F53453D 
 515      3100
 516              		.section	.data.close_net,"aw"
 517              		.align	2
 518              		.set	.LANCHOR14,. + 0
 521              	close_net:
 522 0000 41542B4E 		.ascii	"AT+NETCLOSE\000"
 522      4554434C 
 522      4F534500 
ARM GAS  C:\Users\ngocc\AppData\Local\Temp\ccs2i0W2.s 			page 12


 523              		.section	.data.connect_tcp_code_between,"aw"
 524              		.align	2
 525              		.set	.LANCHOR19,. + 0
 528              	connect_tcp_code_between:
 529 0000 222C00   		.ascii	"\",\000"
 530              		.section	.data.connect_tcp_code_final,"aw"
 531              		.align	2
 532              		.set	.LANCHOR20,. + 0
 535              	connect_tcp_code_final:
 536 0000 2C300D0A 		.ascii	",0\015\012\000"
 536      00
 537              		.section	.data.connect_tcp_code_first,"aw"
 538              		.align	2
 539              		.set	.LANCHOR17,. + 0
 542              	connect_tcp_code_first:
 543 0000 41542B43 		.ascii	"AT+CIPOPEN=1,\"TCP\",\"\000"
 543      49504F50 
 543      454E3D31 
 543      2C225443 
 543      50222C22 
 544              		.section	.data.connect_tcp_ok,"aw"
 545              		.align	2
 548              	connect_tcp_ok:
 549 0000 434F4E4E 		.ascii	"CONNECT IP OK\015\012\000"
 549      45435420 
 549      4950204F 
 549      4B0D0A00 
 550              		.section	.data.get_time,"aw"
 551              		.align	2
 552              		.set	.LANCHOR12,. + 0
 555              	get_time:
 556 0000 41542B43 		.ascii	"AT+CCLK?\015\012\000"
 556      434C4B3F 
 556      0D0A00
 557              		.section	.data.send_data_to_TCP,"aw"
 558              		.align	2
 559              		.set	.LANCHOR11,. + 0
 562              	send_data_to_TCP:
 563 0000 41542B43 		.ascii	"AT+CIPSEND=1,,,,\000"
 563      49505345 
 563      4E443D31 
 563      2C2C2C2C 
 563      00
 564              		.section	.data.set_receive,"aw"
 565              		.align	2
 566              		.set	.LANCHOR10,. + 0
 569              	set_receive:
 570 0000 41542B43 		.ascii	"AT+CIPRXGET=0,1\015\012\000"
 570      49505258 
 570      4745543D 
 570      302C310D 
 570      0A00
 571              		.section	.data.set_timeout,"aw"
 572              		.align	2
 573              		.set	.LANCHOR6,. + 0
 576              	set_timeout:
 577 0000 41542B43 		.ascii	"AT+CIPTIMEOUT=30000,20000,40000,50000\015\012\000"
ARM GAS  C:\Users\ngocc\AppData\Local\Temp\ccs2i0W2.s 			page 13


 577      49505449 
 577      4D454F55 
 577      543D3330 
 577      3030302C 
 578              		.section	.data.set_transmit,"aw"
 579              		.align	2
 580              		.set	.LANCHOR7,. + 0
 583              	set_transmit:
 584 0000 41542B43 		.ascii	"AT+CIPMODE=0\015\012\000"
 584      49504D4F 
 584      44453D30 
 584      0D0A00
 585              		.section	.data.setting_receive,"aw"
 586              		.align	2
 589              	setting_receive:
 590 0000 4B542072 		.ascii	"KT receive OK\015\012\000"
 590      65636569 
 590      7665204F 
 590      4B0D0A00 
 591              		.section	.data.setting_timeout,"aw"
 592              		.align	2
 595              	setting_timeout:
 596 0000 53657420 		.ascii	"Set timeout  OK\015\012\000"
 596      74696D65 
 596      6F757420 
 596      204F4B0D 
 596      0A00
 597              		.section	.data.setting_transmit,"aw"
 598              		.align	2
 601              	setting_transmit:
 602 0000 53657420 		.ascii	"Set transmit OK\015\012\000"
 602      7472616E 
 602      736D6974 
 602      204F4B0D 
 602      0A00
 603              		.text
 604              	.Letext0:
 605              		.file 2 "user/AT_command.h"
 606              		.file 3 "c:\\program files (x86)\\gnu arm embedded toolchain\\10 2021.07\\arm-none-eabi\\include\\
 607              		.file 4 "<built-in>"
ARM GAS  C:\Users\ngocc\AppData\Local\Temp\ccs2i0W2.s 			page 14

